; Function Attrs: nounwind uwtable
define hidden void @_PyAtExit_Init(ptr dead_on_unwind noalias writable writeonly sret(%struct.PyStatus) align 8 captures(none) initializes((0, 32)) %0, ptr noundef writeonly captures(none) initializes((10736, 10744)) %1) local_unnamed_addr #0 {
  %3 = tail call ptr @PyList_New(i64 noundef 0) #6
  %4 = getelementptr inbounds nuw i8, ptr %1, i64 10736
  store ptr %3, ptr %4, align 8, !tbaa !16
  %5 = icmp eq ptr %3, null
  br i1 %5, label %6, label %12

6:                                                ; preds = %2
  %7 = getelementptr inbounds nuw i8, ptr %0, i64 4
  store i32 0, ptr %7, align 4
  %8 = getelementptr inbounds nuw i8, ptr %0, i64 8
  store ptr @__func__._PyAtExit_Init, ptr %8, align 8, !tbaa !17
  %9 = getelementptr inbounds nuw i8, ptr %0, i64 16
  store ptr @.str, ptr %9, align 8, !tbaa !21
  %10 = getelementptr inbounds nuw i8, ptr %0, i64 24
  store i32 0, ptr %10, align 8, !tbaa !22
  %11 = getelementptr inbounds nuw i8, ptr %0, i64 28
  store i32 0, ptr %11, align 4
  br label %13

12:                                               ; preds = %2
  tail call void @llvm.memset.p0.i64(ptr noundef nonnull align 8 dereferenceable(32) %0, i8 0, i64 32, i1 false)
  br label %13

13:                                               ; preds = %12, %6
  %.sink = phi i32 [ 1, %6 ], [ 0, %12 ]
  store i32 %.sink, ptr %0, align 8, !tbaa !23
  ret void
}